target datalayout = "e-m:e-p270:32:32-p271:32:32-p272:64:64-i64:64-i128:128-f80:128-n8:16:32:64-S128"
target triple = "x86_64-pc-linux-gnu"

@.str.4218 = private unnamed_addr constant [38 x i8] c"NG-RAN Xn Application Protocol (XnAP)\00", align 1
@.str.4219 = private unnamed_addr constant [5 x i8] c"XnAP\00", align 1
@.str.4220 = private unnamed_addr constant [5 x i8] c"xnap\00", align 1
@proto_xnap = internal global i32 0, align 4
@xnap_handle = internal global ptr null, align 8
@.str.4221 = private unnamed_addr constant [9 x i8] c"xnap.ies\00", align 1
@.str.4222 = private unnamed_addr constant [18 x i8] c"XNAP-PROTOCOL-IES\00", align 1
@xnap_ies_dissector_table = internal global ptr null, align 8
@.str.4223 = private unnamed_addr constant [15 x i8] c"xnap.extension\00", align 1
@.str.4224 = private unnamed_addr constant [24 x i8] c"XNAP-PROTOCOL-EXTENSION\00", align 1
@xnap_extension_dissector_table = internal global ptr null, align 8
@.str.4225 = private unnamed_addr constant [15 x i8] c"xnap.proc.imsg\00", align 1
@.str.4226 = private unnamed_addr constant [44 x i8] c"XNAP-ELEMENTARY-PROCEDURE InitiatingMessage\00", align 1
@xnap_proc_imsg_dissector_table = internal global ptr null, align 8
@.str.4227 = private unnamed_addr constant [15 x i8] c"xnap.proc.sout\00", align 1
@.str.4228 = private unnamed_addr constant [44 x i8] c"XNAP-ELEMENTARY-PROCEDURE SuccessfulOutcome\00", align 1
@xnap_proc_sout_dissector_table = internal global ptr null, align 8
@.str.4229 = private unnamed_addr constant [15 x i8] c"xnap.proc.uout\00", align 1
@.str.4230 = private unnamed_addr constant [46 x i8] c"XNAP-ELEMENTARY-PROCEDURE UnsuccessfulOutcome\00", align 1
@xnap_proc_uout_dissector_table = internal global ptr null, align 8
@.str.4231 = private unnamed_addr constant [35 x i8] c"dissect_target_ng_ran_container_as\00", align 1
@.str.4232 = private unnamed_addr constant [35 x i8] c"Dissect target NG-RAN container as\00", align 1
@.str.4233 = private unnamed_addr constant [113 x i8] c"Select whether target NG-RAN container should be decoded automatically (based on Xn Setup procedure) or manually\00", align 1
@xnap_dissect_target_ng_ran_container_as = internal global i32 0, align 4
@.str.4234 = private unnamed_addr constant [27 x i8] c"dissect_lte_rrc_context_as\00", align 1
@.str.4235 = private unnamed_addr constant [27 x i8] c"Dissect LTE RRC Context as\00", align 1
@.str.4236 = private unnamed_addr constant [75 x i8] c"Select whether LTE RRC Context should be dissected as legacy LTE or NB-IOT\00", align 1
@xnap_dissect_lte_rrc_context_as = internal global i32 0, align 4

; Function Attrs: null_pointer_is_valid sspstrong uwtable
define hidden void @proto_register_xnap() #0 {
  %1 = alloca ptr, align 8
  call void @llvm.lifetime.start.p0(i64 8, ptr %1) #9
  %2 = call i32 @proto_register_protocol(ptr noundef @.str.4218, ptr noundef @.str.4219, ptr noundef @.str.4220)
  store i32 %2, ptr @proto_xnap, align 4
  %3 = load i32, ptr @proto_xnap, align 4
  call void @proto_register_field_array(i32 noundef %3, ptr noundef @proto_register_xnap.hf, i32 noundef 2031)
  call void @proto_register_subtree_array(ptr noundef @proto_register_xnap.ett, i32 noundef 1043)
  %4 = load i32, ptr @proto_xnap, align 4
  %5 = call ptr @register_dissector(ptr noundef @.str.4220, ptr noundef @dissect_xnap, i32 noundef %4)
  store ptr %5, ptr @xnap_handle, align 8
  %6 = load i32, ptr @proto_xnap, align 4
  %7 = call ptr @register_dissector_table(ptr noundef @.str.4221, ptr noundef @.str.4222, i32 noundef %6, i32 noundef 7, i32 noundef 1)
  store ptr %7, ptr @xnap_ies_dissector_table, align 8
  %8 = load i32, ptr @proto_xnap, align 4
  %9 = call ptr @register_dissector_table(ptr noundef @.str.4223, ptr noundef @.str.4224, i32 noundef %8, i32 noundef 7, i32 noundef 1)
  store ptr %9, ptr @xnap_extension_dissector_table, align 8
  %10 = load i32, ptr @proto_xnap, align 4
  %11 = call ptr @register_dissector_table(ptr noundef @.str.4225, ptr noundef @.str.4226, i32 noundef %10, i32 noundef 7, i32 noundef 1)
  store ptr %11, ptr @xnap_proc_imsg_dissector_table, align 8
  %12 = load i32, ptr @proto_xnap, align 4
  %13 = call ptr @register_dissector_table(ptr noundef @.str.4227, ptr noundef @.str.4228, i32 noundef %12, i32 noundef 7, i32 noundef 1)
  store ptr %13, ptr @xnap_proc_sout_dissector_table, align 8
  %14 = load i32, ptr @proto_xnap, align 4
  %15 = call ptr @register_dissector_table(ptr noundef @.str.4229, ptr noundef @.str.4230, i32 noundef %14, i32 noundef 7, i32 noundef 1)
  store ptr %15, ptr @xnap_proc_uout_dissector_table, align 8
  %16 = load i32, ptr @proto_xnap, align 4
  %17 = call ptr @prefs_register_protocol(i32 noundef %16, ptr noundef null)
  store ptr %17, ptr %1, align 8
  %18 = load ptr, ptr %1, align 8
  call void @prefs_register_enum_preference(ptr noundef %18, ptr noundef @.str.4231, ptr noundef @.str.4232, ptr noundef @.str.4233, ptr noundef @xnap_dissect_target_ng_ran_container_as, ptr noundef @xnap_target_ng_ran_container_vals, i1 noundef zeroext false)
  %19 = load ptr, ptr %1, align 8
  call void @prefs_register_enum_preference(ptr noundef %19, ptr noundef @.str.4234, ptr noundef @.str.4235, ptr noundef @.str.4236, ptr noundef @xnap_dissect_lte_rrc_context_as, ptr noundef @xnap_lte_rrc_context_vals, i1 noundef zeroext false)
  call void @llvm.lifetime.end.p0(i64 8, ptr %1) #9
  ret void
}