; Function Attrs: null_pointer_is_valid sspstrong uwtable
define hidden void @proto_register_xnap() local_unnamed_addr #0 {
  %1 = tail call i32 @proto_register_protocol(ptr noundef nonnull @.str.4218, ptr noundef nonnull @.str.4219, ptr noundef nonnull @.str.4220)
  store i32 %1, ptr @proto_xnap, align 4
  tail call void @proto_register_field_array(i32 noundef %1, ptr noundef nonnull @proto_register_xnap.hf, i32 noundef 2031)
  tail call void @proto_register_subtree_array(ptr noundef nonnull @proto_register_xnap.ett, i32 noundef 1043)
  %2 = load i32, ptr @proto_xnap, align 4
  %3 = tail call ptr @register_dissector(ptr noundef nonnull @.str.4220, ptr noundef nonnull @dissect_xnap, i32 noundef %2)
  store ptr %3, ptr @xnap_handle, align 8
  %4 = load i32, ptr @proto_xnap, align 4
  %5 = tail call ptr @register_dissector_table(ptr noundef nonnull @.str.4221, ptr noundef nonnull @.str.4222, i32 noundef %4, i32 noundef 7, i32 noundef 1)
  store ptr %5, ptr @xnap_ies_dissector_table, align 8
  %6 = load i32, ptr @proto_xnap, align 4
  %7 = tail call ptr @register_dissector_table(ptr noundef nonnull @.str.4223, ptr noundef nonnull @.str.4224, i32 noundef %6, i32 noundef 7, i32 noundef 1)
  store ptr %7, ptr @xnap_extension_dissector_table, align 8
  %8 = load i32, ptr @proto_xnap, align 4
  %9 = tail call ptr @register_dissector_table(ptr noundef nonnull @.str.4225, ptr noundef nonnull @.str.4226, i32 noundef %8, i32 noundef 7, i32 noundef 1)
  store ptr %9, ptr @xnap_proc_imsg_dissector_table, align 8
  %10 = load i32, ptr @proto_xnap, align 4
  %11 = tail call ptr @register_dissector_table(ptr noundef nonnull @.str.4227, ptr noundef nonnull @.str.4228, i32 noundef %10, i32 noundef 7, i32 noundef 1)
  store ptr %11, ptr @xnap_proc_sout_dissector_table, align 8
  %12 = load i32, ptr @proto_xnap, align 4
  %13 = tail call ptr @register_dissector_table(ptr noundef nonnull @.str.4229, ptr noundef nonnull @.str.4230, i32 noundef %12, i32 noundef 7, i32 noundef 1)
  store ptr %13, ptr @xnap_proc_uout_dissector_table, align 8
  %14 = load i32, ptr @proto_xnap, align 4
  %15 = tail call ptr @prefs_register_protocol(i32 noundef %14, ptr noundef null)
  tail call void @prefs_register_enum_preference(ptr noundef %15, ptr noundef nonnull @.str.4231, ptr noundef nonnull @.str.4232, ptr noundef nonnull @.str.4233, ptr noundef nonnull @xnap_dissect_target_ng_ran_container_as, ptr noundef nonnull @xnap_target_ng_ran_container_vals, i1 noundef zeroext false)
  tail call void @prefs_register_enum_preference(ptr noundef %15, ptr noundef nonnull @.str.4234, ptr noundef nonnull @.str.4235, ptr noundef nonnull @.str.4236, ptr noundef nonnull @xnap_dissect_lte_rrc_context_as, ptr noundef nonnull @xnap_lte_rrc_context_vals, i1 noundef zeroext false)
  ret void
}